; Function Attrs: cold mustprogress nofree noreturn nounwind uwtable
define noundef zeroext i1 @_ZN5ezSAT6solverERKSt6vectorIiSaIiEERS0_IbSaIbEES4_(ptr noundef nonnull align 8 captures(none) dereferenceable(284) %0, ptr nonnull readnone align 8 captures(none) %1, ptr nonnull readnone align 8 captures(none) %2, ptr nonnull readnone align 8 captures(none) %3) unnamed_addr #9 align 2 {
  %5 = getelementptr inbounds nuw i8, ptr %0, i64 9
  %6 = load i8, ptr %5, align 1, !tbaa !55, !range !121, !noundef !122
  %7 = trunc nuw i8 %6 to i1
  br i1 %7, label %8, label %_ZN5ezSAT17preSolverCallbackEv.exit

8:                                                ; preds = %4
  %9 = getelementptr inbounds nuw i8, ptr %0, i64 10
  store i8 1, ptr %9, align 2, !tbaa !56
  br label %_ZN5ezSAT17preSolverCallbackEv.exit

_ZN5ezSAT17preSolverCallbackEv.exit:              ; preds = %4, %8
  %10 = load ptr, ptr @stderr, align 8, !tbaa !108
  %11 = tail call i64 @fwrite(ptr nonnull @.str.13, i64 73, i64 1, ptr %10) #36
  %12 = load ptr, ptr @stderr, align 8, !tbaa !108
  %13 = tail call i64 @fwrite(ptr nonnull @.str.14, i64 73, i64 1, ptr %12) #36
  %14 = load ptr, ptr @stderr, align 8, !tbaa !108
  %15 = tail call i64 @fwrite(ptr nonnull @.str.15, i64 44, i64 1, ptr %14) #36
  %16 = load ptr, ptr @stderr, align 8, !tbaa !108
  %17 = tail call i64 @fwrite(ptr nonnull @.str.13, i64 73, i64 1, ptr %16) #36
  tail call void @abort() #32
  unreachable
}